target datalayout = "e-m:e-p270:32:32-p271:32:32-p272:64:64-i64:64-i128:128-f80:128-n8:16:32:64-S128"
target triple = "x86_64-pc-linux-gnu"

%"class.tl::unexpected" = type { i32 }
%"class.tl::expected.23" = type { %"struct.tl::detail::expected_move_assign_base.base.36", [3 x i8] }
%"struct.tl::detail::expected_move_assign_base.base.36" = type { %"struct.tl::detail::expected_copy_assign_base.base.35" }
%"struct.tl::detail::expected_copy_assign_base.base.35" = type { %"struct.tl::detail::expected_move_base.base.34" }
%"struct.tl::detail::expected_move_base.base.34" = type { %"struct.tl::detail::expected_copy_base.base.33" }
%"struct.tl::detail::expected_copy_base.base.33" = type { %"struct.tl::detail::expected_operations_base.base.32" }
%"struct.tl::detail::expected_operations_base.base.32" = type { %"struct.tl::detail::expected_storage_base.base.31" }
%"struct.tl::detail::expected_storage_base.base.31" = type <{ %union.anon.30, i8 }>
%union.anon.30 = type { %"class.tl::unexpected" }

; Function Attrs: mustprogress nounwind uwtable
define void @_ZN4LIEF3ELF8QNXStack17set_is_executableEb(ptr noundef nonnull align 8 dereferenceable(104) %0, i1 noundef zeroext %1) #0 align 2 {
  %3 = alloca ptr, align 8
  %4 = alloca i8, align 1
  %5 = alloca i8, align 1
  %6 = alloca %"class.tl::expected.23", align 4
  store ptr %0, ptr %3, align 8, !tbaa !3
  %7 = zext i1 %1 to i8
  store i8 %7, ptr %4, align 1, !tbaa !14
  %8 = load ptr, ptr %3, align 8
  call void @llvm.lifetime.start.p0(i64 1, ptr %5) #19
  %9 = load i8, ptr %4, align 1, !tbaa !14, !range !20, !noundef !21
  %10 = trunc i8 %9 to i1
  %11 = xor i1 %10, true
  %12 = zext i1 %11 to i8
  store i8 %12, ptr %5, align 1, !tbaa !14
  %13 = call i64 @_ZN4LIEF3ELF4Note8write_atIbEEN2tl8expectedINS_4ok_tE11lief_errorsEEmRKT_(ptr noundef nonnull align 8 dereferenceable(104) %8, i64 noundef 8, ptr noundef nonnull align 1 dereferenceable(1) %5)
  store i64 %13, ptr %6, align 4
  call void @llvm.lifetime.end.p0(i64 1, ptr %5) #19
  ret void
}