; Function Attrs: mustprogress nounwind uwtable
define void @_ZN4LIEF3ELF8QNXStack17set_is_executableEb(ptr noundef nonnull align 8 dereferenceable(104) %0, i1 noundef zeroext %1) local_unnamed_addr #0 align 2 {
  %3 = alloca i8, align 1
  call void @llvm.lifetime.start.p0(i64 1, ptr nonnull %3) #21
  %4 = xor i1 %1, true
  %5 = zext i1 %4 to i8
  store i8 %5, ptr %3, align 1, !tbaa !7
  %6 = call i64 @_ZN4LIEF3ELF4Note8write_atIbEEN2tl8expectedINS_4ok_tE11lief_errorsEEmRKT_(ptr noundef nonnull align 8 dereferenceable(104) %0, i64 noundef 8, ptr noundef nonnull align 1 dereferenceable(1) %3) #21
  call void @llvm.lifetime.end.p0(i64 1, ptr nonnull %3) #21
  ret void
}